target datalayout = "e-m:e-p270:32:32-p271:32:32-p272:64:64-i64:64-i128:128-f80:128-n8:16:32:64-S128"
target triple = "x86_64-pc-linux-gnu"

%"class.std::fpos" = type { i64, %struct.__mbstate_t }
%struct.__mbstate_t = type { i32, %union.anon }
%union.anon = type { i32 }

$_ZN5boost6nowide6detail26cast_if_valid_or_minus_oneIllEET_T0_ = comdat any

$_ZNSt4fposI11__mbstate_tEC2El = comdat any

$_ZN5boost6nowide6detail11is_in_rangeIllEEbT0_ = comdat any

$_ZNSt14numeric_limitsIlE3minEv = comdat any

$_ZNSt14numeric_limitsIlE3maxEv = comdat any

; Function Attrs: mustprogress uwtable
define { i64, i64 } @_ZN5boost6nowide6detail5ftellEP8_IO_FILE(ptr noundef %0) #0 {
  %2 = alloca %"class.std::fpos", align 8
  %3 = alloca ptr, align 8
  %4 = alloca i64, align 8
  store ptr %0, ptr %3, align 8, !tbaa !3
  call void @llvm.lifetime.start.p0(i64 8, ptr %4) #5
  %5 = load ptr, ptr %3, align 8, !tbaa !3
  %6 = call i64 @ftello64(ptr noundef %5)
  store i64 %6, ptr %4, align 8, !tbaa !7
  %7 = load i64, ptr %4, align 8, !tbaa !7
  %8 = call noundef i64 @_ZN5boost6nowide6detail26cast_if_valid_or_minus_oneIllEET_T0_(i64 noundef %7)
  call void @_ZNSt4fposI11__mbstate_tEC2El(ptr noundef nonnull align 8 dereferenceable(16) %2, i64 noundef %8)
  call void @llvm.lifetime.end.p0(i64 8, ptr %4) #5
  %9 = load { i64, i64 }, ptr %2, align 8
  ret { i64, i64 } %9
}

; Function Attrs: nocallback nofree nosync nounwind willreturn memory(argmem: readwrite)
declare void @llvm.lifetime.start.p0(i64 immarg, ptr nocapture) #1

declare i64 @ftello64(ptr noundef) #2

; Function Attrs: mustprogress nounwind uwtable
define linkonce_odr hidden noundef i64 @_ZN5boost6nowide6detail26cast_if_valid_or_minus_oneIllEET_T0_(i64 noundef %0) #3 comdat {
  %2 = alloca i64, align 8
  store i64 %0, ptr %2, align 8, !tbaa !7
  %3 = load i64, ptr %2, align 8, !tbaa !7
  %4 = call noundef zeroext i1 @_ZN5boost6nowide6detail11is_in_rangeIllEEbT0_(i64 noundef %3)
  br i1 %4, label %5, label %7

5:                                                ; preds = %1
  %6 = load i64, ptr %2, align 8, !tbaa !7
  br label %8

7:                                                ; preds = %1
  br label %8

8:                                                ; preds = %7, %5
  %9 = phi i64 [ %6, %5 ], [ -1, %7 ]
  ret i64 %9
}

; Function Attrs: mustprogress nounwind uwtable
define linkonce_odr hidden void @_ZNSt4fposI11__mbstate_tEC2El(ptr noundef nonnull align 8 dereferenceable(16) %0, i64 noundef %1) unnamed_addr #3 comdat align 2 {
  %3 = alloca ptr, align 8
  %4 = alloca i64, align 8
  store ptr %0, ptr %3, align 8, !tbaa !3
  store i64 %1, ptr %4, align 8, !tbaa !7
  %5 = load ptr, ptr %3, align 8
  %6 = getelementptr inbounds nuw %"class.std::fpos", ptr %5, i32 0, i32 0
  %7 = load i64, ptr %4, align 8, !tbaa !7
  store i64 %7, ptr %6, align 8, !tbaa !9
  %8 = getelementptr inbounds nuw %"class.std::fpos", ptr %5, i32 0, i32 1
  call void @llvm.memset.p0.i64(ptr align 8 %8, i8 0, i64 8, i1 false)
  ret void
}

; Function Attrs: nocallback nofree nosync nounwind willreturn memory(argmem: readwrite)
declare void @llvm.lifetime.end.p0(i64 immarg, ptr nocapture) #1

; Function Attrs: mustprogress uwtable
define noundef i32 @_ZN5boost6nowide6detail5fseekEP8_IO_FILEli(ptr noundef %0, i64 noundef %1, i32 noundef %2) #0 {
  %4 = alloca i32, align 4
  %5 = alloca ptr, align 8
  %6 = alloca i64, align 8
  %7 = alloca i32, align 4
  store ptr %0, ptr %5, align 8, !tbaa !3
  store i64 %1, ptr %6, align 8, !tbaa !7
  store i32 %2, ptr %7, align 4, !tbaa !13
  %8 = load i64, ptr %6, align 8, !tbaa !7
  %9 = call noundef zeroext i1 @_ZN5boost6nowide6detail11is_in_rangeIllEEbT0_(i64 noundef %8)
  br i1 %9, label %11, label %10

10:                                               ; preds = %3
  store i32 -1, ptr %4, align 4
  br label %16

11:                                               ; preds = %3
  %12 = load ptr, ptr %5, align 8, !tbaa !3
  %13 = load i64, ptr %6, align 8, !tbaa !7
  %14 = load i32, ptr %7, align 4, !tbaa !13
  %15 = call i32 @fseeko64(ptr noundef %12, i64 noundef %13, i32 noundef %14)
  store i32 %15, ptr %4, align 4
  br label %16

16:                                               ; preds = %11, %10
  %17 = load i32, ptr %4, align 4
  ret i32 %17
}

; Function Attrs: mustprogress nounwind uwtable
define linkonce_odr hidden noundef zeroext i1 @_ZN5boost6nowide6detail11is_in_rangeIllEEbT0_(i64 noundef %0) #3 comdat {
  %2 = alloca i64, align 8
  store i64 %0, ptr %2, align 8, !tbaa !7
  %3 = load i64, ptr %2, align 8, !tbaa !7
  %4 = call noundef i64 @_ZNSt14numeric_limitsIlE3minEv() #5
  %5 = icmp sge i64 %3, %4
  br i1 %5, label %6, label %10

6:                                                ; preds = %1
  %7 = load i64, ptr %2, align 8, !tbaa !7
  %8 = call noundef i64 @_ZNSt14numeric_limitsIlE3maxEv() #5
  %9 = icmp sle i64 %7, %8
  br label %10

10:                                               ; preds = %6, %1
  %11 = phi i1 [ false, %1 ], [ %9, %6 ]
  ret i1 %11
}

declare i32 @fseeko64(ptr noundef, i64 noundef, i32 noundef) #2

; Function Attrs: mustprogress nounwind uwtable
define linkonce_odr hidden noundef i64 @_ZNSt14numeric_limitsIlE3minEv() #3 comdat align 2 {
  ret i64 -9223372036854775808
}

; Function Attrs: mustprogress nounwind uwtable
define linkonce_odr hidden noundef i64 @_ZNSt14numeric_limitsIlE3maxEv() #3 comdat align 2 {
  ret i64 9223372036854775807
}

; Function Attrs: nocallback nofree nounwind willreturn memory(argmem: write)
declare void @llvm.memset.p0.i64(ptr nocapture writeonly, i8, i64, i1 immarg) #4


!llvm.module.flags = !{!0, !1, !2}

!0 = !{i32 1, !"wchar_size", i32 4}
!1 = !{i32 8, !"PIC Level", i32 2}
!2 = !{i32 7, !"uwtable", i32 2}
!3 = !{!4, !4, i64 0}
!4 = !{!"any pointer", !5, i64 0}
!5 = !{!"omnipotent char", !6, i64 0}
!6 = !{!"Simple C++ TBAA"}
!7 = !{!8, !8, i64 0}
!8 = !{!"long", !5, i64 0}
!9 = !{!10, !8, i64 0}
!10 = !{!"_ZTSSt4fposI11__mbstate_tE", !8, i64 0, !11, i64 8}
!11 = !{!"_ZTS11__mbstate_t", !12, i64 0, !5, i64 4}
!12 = !{!"int", !5, i64 0}
!13 = !{!12, !12, i64 0}
