; ModuleID = 'bench/boost/original/filebuf.ll'
source_filename = "bench/boost/original/filebuf.ll"
target datalayout = "e-m:e-p270:32:32-p271:32:32-p272:64:64-i64:64-i128:128-f80:128-n8:16:32:64-S128"
target triple = "x86_64-pc-linux-gnu"

; Function Attrs: mustprogress nofree nounwind uwtable
define { i64, i64 } @_ZN5boost6nowide6detail5ftellEP8_IO_FILE(ptr nocapture noundef %0) local_unnamed_addr #0 {
  %2 = tail call i64 @ftello64(ptr noundef %0)
  %.fca.0.insert = insertvalue { i64, i64 } poison, i64 %2, 0
  %.fca.1.insert = insertvalue { i64, i64 } %.fca.0.insert, i64 0, 1
  ret { i64, i64 } %.fca.1.insert
}

; Function Attrs: nofree nounwind
declare noundef i64 @ftello64(ptr nocapture noundef) local_unnamed_addr #1

; Function Attrs: mustprogress nofree nounwind uwtable
define noundef i32 @_ZN5boost6nowide6detail5fseekEP8_IO_FILEli(ptr nocapture noundef %0, i64 noundef %1, i32 noundef %2) local_unnamed_addr #0 {
  %4 = tail call i32 @fseeko64(ptr noundef %0, i64 noundef %1, i32 noundef %2)
  ret i32 %4
}

; Function Attrs: nofree nounwind
declare noundef i32 @fseeko64(ptr nocapture noundef, i64 noundef, i32 noundef) local_unnamed_addr #1


!llvm.module.flags = !{!0, !1, !2}

!0 = !{i32 1, !"wchar_size", i32 4}
!1 = !{i32 8, !"PIC Level", i32 2}
!2 = !{i32 7, !"uwtable", i32 2}
